target datalayout = "e-m:e-p270:32:32-p271:32:32-p272:64:64-i64:64-i128:128-f80:128-n8:16:32:64-S128"
target triple = "x86_64-pc-linux-gnu"

%struct.string_list = type { ptr, i64, i64, i8, ptr }
%struct.mailmap_entry = type { ptr, ptr, %struct.string_list }
%struct.string_list_item = type { ptr, ptr }
%struct.mailmap_info = type { ptr, ptr }

@sane_ctype = external constant [256 x i8], align 16

; Function Attrs: inlinehint nounwind uwtable
define internal ptr @xstrdup_or_null(ptr noundef %0) #4 {
  %2 = alloca ptr, align 8
  store ptr %0, ptr %2, align 8, !tbaa !9
  %3 = load ptr, ptr %2, align 8, !tbaa !9
  %4 = icmp ne ptr %3, null
  br i1 %4, label %5, label %8

5:                                                ; preds = %1
  %6 = load ptr, ptr %2, align 8, !tbaa !9
  %7 = call ptr @xstrdup(ptr noundef %6)
  br label %9

8:                                                ; preds = %1
  br label %9

9:                                                ; preds = %8, %5
  %10 = phi ptr [ %7, %5 ], [ null, %8 ]
  ret ptr %10
}

; Function Attrs: nounwind uwtable
define internal void @add_mapping(ptr noundef %0, ptr noundef %1, ptr noundef %2, ptr noundef %3, ptr noundef %4) #0 {
  %6 = alloca ptr, align 8
  %7 = alloca ptr, align 8
  %8 = alloca ptr, align 8
  %9 = alloca ptr, align 8
  %10 = alloca ptr, align 8
  %11 = alloca ptr, align 8
  %12 = alloca ptr, align 8
  %13 = alloca ptr, align 8
  store ptr %0, ptr %6, align 8, !tbaa !4
  store ptr %1, ptr %7, align 8, !tbaa !9
  store ptr %2, ptr %8, align 8, !tbaa !9
  store ptr %3, ptr %9, align 8, !tbaa !9
  store ptr %4, ptr %10, align 8, !tbaa !9
  call void @llvm.lifetime.start.p0(i64 8, ptr %11) #7
  call void @llvm.lifetime.start.p0(i64 8, ptr %12) #7
  %14 = load ptr, ptr %10, align 8, !tbaa !9
  %15 = icmp ne ptr %14, null
  br i1 %15, label %18, label %16

16:                                               ; preds = %5
  %17 = load ptr, ptr %8, align 8, !tbaa !9
  store ptr %17, ptr %10, align 8, !tbaa !9
  store ptr null, ptr %8, align 8, !tbaa !9
  br label %18

18:                                               ; preds = %16, %5
  %19 = load ptr, ptr %6, align 8, !tbaa !4
  %20 = load ptr, ptr %10, align 8, !tbaa !9
  %21 = call ptr @string_list_insert(ptr noundef %19, ptr noundef %20)
  store ptr %21, ptr %12, align 8, !tbaa !40
  %22 = load ptr, ptr %12, align 8, !tbaa !40
  %23 = getelementptr inbounds nuw %struct.string_list_item, ptr %22, i32 0, i32 1
  %24 = load ptr, ptr %23, align 8, !tbaa !41
  %25 = icmp ne ptr %24, null
  br i1 %25, label %26, label %30

26:                                               ; preds = %18
  %27 = load ptr, ptr %12, align 8, !tbaa !40
  %28 = getelementptr inbounds nuw %struct.string_list_item, ptr %27, i32 0, i32 1
  %29 = load ptr, ptr %28, align 8, !tbaa !41
  store ptr %29, ptr %11, align 8, !tbaa !30
  br label %44

30:                                               ; preds = %18
  %31 = call ptr @xcalloc(i64 noundef 1, i64 noundef 56)
  store ptr %31, ptr %11, align 8, !tbaa !30
  %32 = load ptr, ptr %11, align 8, !tbaa !30
  %33 = getelementptr inbounds nuw %struct.mailmap_entry, ptr %32, i32 0, i32 2
  %34 = getelementptr inbounds nuw %struct.string_list, ptr %33, i32 0, i32 3
  %35 = load i8, ptr %34, align 8
  %36 = and i8 %35, -2
  %37 = or i8 %36, 1
  store i8 %37, ptr %34, align 8
  %38 = load ptr, ptr %11, align 8, !tbaa !30
  %39 = getelementptr inbounds nuw %struct.mailmap_entry, ptr %38, i32 0, i32 2
  %40 = getelementptr inbounds nuw %struct.string_list, ptr %39, i32 0, i32 4
  store ptr @namemap_cmp, ptr %40, align 8, !tbaa !55
  %41 = load ptr, ptr %11, align 8, !tbaa !30
  %42 = load ptr, ptr %12, align 8, !tbaa !40
  %43 = getelementptr inbounds nuw %struct.string_list_item, ptr %42, i32 0, i32 1
  store ptr %41, ptr %43, align 8, !tbaa !41
  br label %44

44:                                               ; preds = %30, %26
  %45 = load ptr, ptr %9, align 8, !tbaa !9
  %46 = icmp ne ptr %45, null
  br i1 %46, label %70, label %47

47:                                               ; preds = %44
  %48 = load ptr, ptr %7, align 8, !tbaa !9
  %49 = icmp ne ptr %48, null
  br i1 %49, label %50, label %58

50:                                               ; preds = %47
  %51 = load ptr, ptr %11, align 8, !tbaa !30
  %52 = getelementptr inbounds nuw %struct.mailmap_entry, ptr %51, i32 0, i32 0
  %53 = load ptr, ptr %52, align 8, !tbaa !32
  call void @free(ptr noundef %53) #7
  %54 = load ptr, ptr %7, align 8, !tbaa !9
  %55 = call ptr @xstrdup(ptr noundef %54)
  %56 = load ptr, ptr %11, align 8, !tbaa !30
  %57 = getelementptr inbounds nuw %struct.mailmap_entry, ptr %56, i32 0, i32 0
  store ptr %55, ptr %57, align 8, !tbaa !32
  br label %58

58:                                               ; preds = %50, %47
  %59 = load ptr, ptr %8, align 8, !tbaa !9
  %60 = icmp ne ptr %59, null
  br i1 %60, label %61, label %69

61:                                               ; preds = %58
  %62 = load ptr, ptr %11, align 8, !tbaa !30
  %63 = getelementptr inbounds nuw %struct.mailmap_entry, ptr %62, i32 0, i32 1
  %64 = load ptr, ptr %63, align 8, !tbaa !34
  call void @free(ptr noundef %64) #7
  %65 = load ptr, ptr %8, align 8, !tbaa !9
  %66 = call ptr @xstrdup(ptr noundef %65)
  %67 = load ptr, ptr %11, align 8, !tbaa !30
  %68 = getelementptr inbounds nuw %struct.mailmap_entry, ptr %67, i32 0, i32 1
  store ptr %66, ptr %68, align 8, !tbaa !34
  br label %69

69:                                               ; preds = %61, %58
  br label %86

70:                                               ; preds = %44
  call void @llvm.lifetime.start.p0(i64 8, ptr %13) #7
  %71 = call ptr @xcalloc(i64 noundef 1, i64 noundef 16)
  store ptr %71, ptr %13, align 8, !tbaa !44
  %72 = load ptr, ptr %7, align 8, !tbaa !9
  %73 = call ptr @xstrdup_or_null(ptr noundef %72)
  %74 = load ptr, ptr %13, align 8, !tbaa !44
  %75 = getelementptr inbounds nuw %struct.mailmap_info, ptr %74, i32 0, i32 0
  store ptr %73, ptr %75, align 8, !tbaa !46
  %76 = load ptr, ptr %8, align 8, !tbaa !9
  %77 = call ptr @xstrdup_or_null(ptr noundef %76)
  %78 = load ptr, ptr %13, align 8, !tbaa !44
  %79 = getelementptr inbounds nuw %struct.mailmap_info, ptr %78, i32 0, i32 1
  store ptr %77, ptr %79, align 8, !tbaa !48
  %80 = load ptr, ptr %13, align 8, !tbaa !44
  %81 = load ptr, ptr %11, align 8, !tbaa !30
  %82 = getelementptr inbounds nuw %struct.mailmap_entry, ptr %81, i32 0, i32 2
  %83 = load ptr, ptr %9, align 8, !tbaa !9
  %84 = call ptr @string_list_insert(ptr noundef %82, ptr noundef %83)
  %85 = getelementptr inbounds nuw %struct.string_list_item, ptr %84, i32 0, i32 1
  store ptr %80, ptr %85, align 8, !tbaa !41
  call void @llvm.lifetime.end.p0(i64 8, ptr %13) #7
  br label %86

86:                                               ; preds = %70, %69
  call void @llvm.lifetime.end.p0(i64 8, ptr %12) #7
  call void @llvm.lifetime.end.p0(i64 8, ptr %11) #7
  ret void
}

; Function Attrs: nounwind uwtable
define internal ptr @parse_name_and_email(ptr noundef %0, ptr noundef %1, ptr noundef %2, i32 noundef %3) #0 {
  %5 = alloca ptr, align 8
  %6 = alloca ptr, align 8
  %7 = alloca ptr, align 8
  %8 = alloca ptr, align 8
  %9 = alloca i32, align 4
  %10 = alloca ptr, align 8
  %11 = alloca ptr, align 8
  %12 = alloca ptr, align 8
  %13 = alloca ptr, align 8
  %14 = alloca i32, align 4
  store ptr %0, ptr %6, align 8, !tbaa !9
  store ptr %1, ptr %7, align 8, !tbaa !35
  store ptr %2, ptr %8, align 8, !tbaa !35
  store i32 %3, ptr %9, align 4, !tbaa !11
  call void @llvm.lifetime.start.p0(i64 8, ptr %10) #7
  call void @llvm.lifetime.start.p0(i64 8, ptr %11) #7
  call void @llvm.lifetime.start.p0(i64 8, ptr %12) #7
  call void @llvm.lifetime.start.p0(i64 8, ptr %13) #7
  %15 = load ptr, ptr %8, align 8, !tbaa !35
  store ptr null, ptr %15, align 8, !tbaa !9
  %16 = load ptr, ptr %7, align 8, !tbaa !35
  store ptr null, ptr %16, align 8, !tbaa !9
  %17 = load ptr, ptr %6, align 8, !tbaa !9
  %18 = call ptr @strchr(ptr noundef %17, i32 noundef 60) #9
  store ptr %18, ptr %10, align 8, !tbaa !9
  %19 = icmp ne ptr %18, null
  br i1 %19, label %21, label %20

20:                                               ; preds = %4
  store ptr null, ptr %5, align 8
  store i32 1, ptr %14, align 4
  br label %103

21:                                               ; preds = %4
  %22 = load ptr, ptr %10, align 8, !tbaa !9
  %23 = getelementptr inbounds i8, ptr %22, i64 1
  %24 = call ptr @strchr(ptr noundef %23, i32 noundef 62) #9
  store ptr %24, ptr %11, align 8, !tbaa !9
  %25 = icmp ne ptr %24, null
  br i1 %25, label %27, label %26

26:                                               ; preds = %21
  store ptr null, ptr %5, align 8
  store i32 1, ptr %14, align 4
  br label %103

27:                                               ; preds = %21
  %28 = load i32, ptr %9, align 4, !tbaa !11
  %29 = icmp ne i32 %28, 0
  br i1 %29, label %36, label %30

30:                                               ; preds = %27
  %31 = load ptr, ptr %10, align 8, !tbaa !9
  %32 = getelementptr inbounds i8, ptr %31, i64 1
  %33 = load ptr, ptr %11, align 8, !tbaa !9
  %34 = icmp eq ptr %32, %33
  br i1 %34, label %35, label %36

35:                                               ; preds = %30
  store ptr null, ptr %5, align 8
  store i32 1, ptr %14, align 4
  br label %103

36:                                               ; preds = %30, %27
  %37 = load ptr, ptr %6, align 8, !tbaa !9
  store ptr %37, ptr %12, align 8, !tbaa !9
  br label %38

38:                                               ; preds = %53, %36
  %39 = load ptr, ptr %12, align 8, !tbaa !9
  %40 = load i8, ptr %39, align 1, !tbaa !17
  %41 = zext i8 %40 to i64
  %42 = getelementptr inbounds nuw [256 x i8], ptr @sane_ctype, i64 0, i64 %41
  %43 = load i8, ptr %42, align 1, !tbaa !17
  %44 = zext i8 %43 to i32
  %45 = and i32 %44, 1
  %46 = icmp ne i32 %45, 0
  br i1 %46, label %47, label %51

47:                                               ; preds = %38
  %48 = load ptr, ptr %12, align 8, !tbaa !9
  %49 = load ptr, ptr %10, align 8, !tbaa !9
  %50 = icmp ult ptr %48, %49
  br label %51

51:                                               ; preds = %47, %38
  %52 = phi i1 [ false, %38 ], [ %50, %47 ]
  br i1 %52, label %53, label %56

53:                                               ; preds = %51
  %54 = load ptr, ptr %12, align 8, !tbaa !9
  %55 = getelementptr inbounds nuw i8, ptr %54, i32 1
  store ptr %55, ptr %12, align 8, !tbaa !9
  br label %38, !llvm.loop !53

56:                                               ; preds = %51
  %57 = load ptr, ptr %10, align 8, !tbaa !9
  %58 = getelementptr inbounds i8, ptr %57, i64 -1
  store ptr %58, ptr %13, align 8, !tbaa !9
  br label %59

59:                                               ; preds = %74, %56
  %60 = load ptr, ptr %13, align 8, !tbaa !9
  %61 = load ptr, ptr %12, align 8, !tbaa !9
  %62 = icmp ugt ptr %60, %61
  br i1 %62, label %63, label %72

63:                                               ; preds = %59
  %64 = load ptr, ptr %13, align 8, !tbaa !9
  %65 = load i8, ptr %64, align 1, !tbaa !17
  %66 = zext i8 %65 to i64
  %67 = getelementptr inbounds nuw [256 x i8], ptr @sane_ctype, i64 0, i64 %66
  %68 = load i8, ptr %67, align 1, !tbaa !17
  %69 = zext i8 %68 to i32
  %70 = and i32 %69, 1
  %71 = icmp ne i32 %70, 0
  br label %72

72:                                               ; preds = %63, %59
  %73 = phi i1 [ false, %59 ], [ %71, %63 ]
  br i1 %73, label %74, label %77

74:                                               ; preds = %72
  %75 = load ptr, ptr %13, align 8, !tbaa !9
  %76 = getelementptr inbounds i8, ptr %75, i32 -1
  store ptr %76, ptr %13, align 8, !tbaa !9
  br label %59, !llvm.loop !54

77:                                               ; preds = %72
  %78 = load ptr, ptr %12, align 8, !tbaa !9
  %79 = load ptr, ptr %13, align 8, !tbaa !9
  %80 = icmp ule ptr %78, %79
  br i1 %80, label %81, label %83

81:                                               ; preds = %77
  %82 = load ptr, ptr %12, align 8, !tbaa !9
  br label %84

83:                                               ; preds = %77
  br label %84

84:                                               ; preds = %83, %81
  %85 = phi ptr [ %82, %81 ], [ null, %83 ]
  %86 = load ptr, ptr %7, align 8, !tbaa !35
  store ptr %85, ptr %86, align 8, !tbaa !9
  %87 = load ptr, ptr %10, align 8, !tbaa !9
  %88 = getelementptr inbounds i8, ptr %87, i64 1
  %89 = load ptr, ptr %8, align 8, !tbaa !35
  store ptr %88, ptr %89, align 8, !tbaa !9
  %90 = load ptr, ptr %13, align 8, !tbaa !9
  %91 = getelementptr inbounds i8, ptr %90, i64 1
  store i8 0, ptr %91, align 1, !tbaa !17
  %92 = load ptr, ptr %11, align 8, !tbaa !9
  %93 = getelementptr inbounds nuw i8, ptr %92, i32 1
  store ptr %93, ptr %11, align 8, !tbaa !9
  store i8 0, ptr %92, align 1, !tbaa !17
  %94 = load ptr, ptr %11, align 8, !tbaa !9
  %95 = load i8, ptr %94, align 1, !tbaa !17
  %96 = sext i8 %95 to i32
  %97 = icmp eq i32 %96, 0
  br i1 %97, label %98, label %99

98:                                               ; preds = %84
  br label %101

99:                                               ; preds = %84
  %100 = load ptr, ptr %11, align 8, !tbaa !9
  br label %101

101:                                              ; preds = %99, %98
  %102 = phi ptr [ null, %98 ], [ %100, %99 ]
  store ptr %102, ptr %5, align 8
  store i32 1, ptr %14, align 4
  br label %103

103:                                              ; preds = %101, %35, %26, %20
  call void @llvm.lifetime.end.p0(i64 8, ptr %13) #7
  call void @llvm.lifetime.end.p0(i64 8, ptr %12) #7
  call void @llvm.lifetime.end.p0(i64 8, ptr %11) #7
  call void @llvm.lifetime.end.p0(i64 8, ptr %10) #7
  %104 = load ptr, ptr %5, align 8
  ret ptr %104
}

; Function Attrs: nounwind uwtable
define internal void @read_mailmap_line(ptr noundef %0, ptr noundef %1) #0 {
  %3 = alloca ptr, align 8
  %4 = alloca ptr, align 8
  %5 = alloca ptr, align 8
  %6 = alloca ptr, align 8
  %7 = alloca ptr, align 8
  %8 = alloca ptr, align 8
  %9 = alloca i32, align 4
  store ptr %0, ptr %3, align 8, !tbaa !4
  store ptr %1, ptr %4, align 8, !tbaa !9
  call void @llvm.lifetime.start.p0(i64 8, ptr %5) #7
  store ptr null, ptr %5, align 8, !tbaa !9
  call void @llvm.lifetime.start.p0(i64 8, ptr %6) #7
  store ptr null, ptr %6, align 8, !tbaa !9
  call void @llvm.lifetime.start.p0(i64 8, ptr %7) #7
  store ptr null, ptr %7, align 8, !tbaa !9
  call void @llvm.lifetime.start.p0(i64 8, ptr %8) #7
  store ptr null, ptr %8, align 8, !tbaa !9
  %10 = load ptr, ptr %4, align 8, !tbaa !9
  %11 = getelementptr inbounds i8, ptr %10, i64 0
  %12 = load i8, ptr %11, align 1, !tbaa !17
  %13 = sext i8 %12 to i32
  %14 = icmp eq i32 %13, 35
  br i1 %14, label %15, label %16

15:                                               ; preds = %2
  store i32 1, ptr %9, align 4
  br label %33

16:                                               ; preds = %2
  %17 = load ptr, ptr %4, align 8, !tbaa !9
  %18 = call ptr @parse_name_and_email(ptr noundef %17, ptr noundef %5, ptr noundef %6, i32 noundef 0)
  store ptr %18, ptr %7, align 8, !tbaa !9
  %19 = icmp ne ptr %18, null
  br i1 %19, label %20, label %23

20:                                               ; preds = %16
  %21 = load ptr, ptr %7, align 8, !tbaa !9
  %22 = call ptr @parse_name_and_email(ptr noundef %21, ptr noundef %7, ptr noundef %8, i32 noundef 1)
  br label %23

23:                                               ; preds = %20, %16
  %24 = load ptr, ptr %6, align 8, !tbaa !9
  %25 = icmp ne ptr %24, null
  br i1 %25, label %26, label %32

26:                                               ; preds = %23
  %27 = load ptr, ptr %3, align 8, !tbaa !4
  %28 = load ptr, ptr %5, align 8, !tbaa !9
  %29 = load ptr, ptr %6, align 8, !tbaa !9
  %30 = load ptr, ptr %7, align 8, !tbaa !9
  %31 = load ptr, ptr %8, align 8, !tbaa !9
  call void @add_mapping(ptr noundef %27, ptr noundef %28, ptr noundef %29, ptr noundef %30, ptr noundef %31)
  br label %32

32:                                               ; preds = %26, %23
  store i32 0, ptr %9, align 4
  br label %33

33:                                               ; preds = %32, %15
  call void @llvm.lifetime.end.p0(i64 8, ptr %8) #7
  call void @llvm.lifetime.end.p0(i64 8, ptr %7) #7
  call void @llvm.lifetime.end.p0(i64 8, ptr %6) #7
  call void @llvm.lifetime.end.p0(i64 8, ptr %5) #7
  %34 = load i32, ptr %9, align 4
  switch i32 %34, label %36 [
    i32 0, label %35
    i32 1, label %35
  ]

35:                                               ; preds = %33, %33
  ret void

36:                                               ; preds = %33
  unreachable
}